#include <math.h>
#include <stdio.h>
#include <stdlib.h>
#include <string.h>

int have7(int i)
{
    if (i%10==7||(int)((i/10))%10==7)
        return 0;
    else
        return 1;
}
int main ()
{
    int n,i,s=0;
    scanf("%d",&n);
    for (i=0;i<=n;i++)
    {
        if ((i%7!=0)&&(have7(i)))
            s=s+i*i;
    }
    printf("%d",s);
    return 0;
}
